target datalayout = "e-m:e-p270:32:32-p271:32:32-p272:64:64-i64:64-i128:128-f80:128-n8:16:32:64-S128"
target triple = "x86_64-pc-linux-gnu"

%struct._packet_info = type { ptr, ptr, i32, i32, %struct.nstime_t, %struct.nstime_t, %struct.nstime_t, i8, ptr, ptr, ptr, ptr, %struct._address, %struct._address, %struct._address, %struct._address, %struct._address, %struct._address, i32, ptr, i8, [3 x i8], %struct.anon, i32, i32, i32, i32, ptr, i8, ptr, ptr, i16, i16, i32, i32, i16, i32, i32, ptr, ptr, ptr, i8, i8, i16, i16, i16, i32, i16, i16, ptr, ptr, ptr, ptr, ptr, i32, i32 }
%struct.nstime_t = type { i64, i32 }
%struct._address = type { i32, i32, ptr, ptr }
%struct.anon = type { i8, [3 x i8] }

; Function Attrs: null_pointer_is_valid sspstrong uwtable
define internal i32 @dissect_rtitcp(ptr noundef %0, ptr noundef %1, ptr noundef %2, ptr noundef %3) #0 {
  %5 = alloca i32, align 4
  %6 = alloca ptr, align 8
  %7 = alloca ptr, align 8
  %8 = alloca ptr, align 8
  %9 = alloca ptr, align 8
  %10 = alloca i8, align 1
  %11 = alloca i32, align 4
  store ptr %0, ptr %6, align 8
  store ptr %1, ptr %7, align 8
  store ptr %2, ptr %8, align 8
  store ptr %3, ptr %9, align 8
  call void @llvm.lifetime.start.p0(i64 1, ptr %10) #6
  store i8 1, ptr %10, align 1
  %12 = load ptr, ptr %6, align 8
  %13 = call i32 @tvb_captured_length(ptr noundef %12)
  %14 = icmp ult i32 %13, 8
  br i1 %14, label %15, label %16

15:                                               ; preds = %4
  store i32 0, ptr %5, align 4
  store i32 1, ptr %11, align 4
  br label %33

16:                                               ; preds = %4
  %17 = load ptr, ptr %6, align 8
  %18 = call i32 @tvb_get_ntohl(ptr noundef %17, i32 noundef 4)
  %19 = icmp ne i32 %18, -581640875
  br i1 %19, label %20, label %21

20:                                               ; preds = %16
  store i32 0, ptr %5, align 4
  store i32 1, ptr %11, align 4
  br label %33

21:                                               ; preds = %16
  %22 = load ptr, ptr %7, align 8
  %23 = getelementptr inbounds nuw %struct._packet_info, ptr %22, i32 0, i32 1
  %24 = load ptr, ptr %23, align 8
  call void @col_clear(ptr noundef %24, i32 noundef 25)
  %25 = load ptr, ptr %6, align 8
  %26 = load ptr, ptr %7, align 8
  %27 = load ptr, ptr %8, align 8
  %28 = load i8, ptr %10, align 1, !range !6, !noundef !7
  %29 = trunc i8 %28 to i1
  %30 = load ptr, ptr %9, align 8
  call void @tcp_dissect_pdus(ptr noundef %25, ptr noundef %26, ptr noundef %27, i1 noundef zeroext %29, i32 noundef 8, ptr noundef @get_rtitcp_pdu_len, ptr noundef @dissect_rtitcp_common, ptr noundef %30)
  %31 = load ptr, ptr %6, align 8
  %32 = call i32 @tvb_captured_length(ptr noundef %31)
  store i32 %32, ptr %5, align 4
  store i32 1, ptr %11, align 4
  br label %33

33:                                               ; preds = %21, %20, %15
  call void @llvm.lifetime.end.p0(i64 1, ptr %10) #6
  %34 = load i32, ptr %5, align 4
  ret i32 %34
}

; Function Attrs: null_pointer_is_valid sspstrong uwtable
define internal zeroext i1 @dissect_rtitcp_heur(ptr noundef %0, ptr noundef %1, ptr noundef %2, ptr noundef %3) #0 {
  %5 = alloca ptr, align 8
  %6 = alloca ptr, align 8
  %7 = alloca ptr, align 8
  %8 = alloca ptr, align 8
  store ptr %0, ptr %5, align 8
  store ptr %1, ptr %6, align 8
  store ptr %2, ptr %7, align 8
  store ptr %3, ptr %8, align 8
  %9 = load ptr, ptr %5, align 8
  %10 = load ptr, ptr %6, align 8
  %11 = load ptr, ptr %7, align 8
  %12 = load ptr, ptr %8, align 8
  %13 = call i32 @dissect_rtitcp(ptr noundef %9, ptr noundef %10, ptr noundef %11, ptr noundef %12)
  %14 = icmp sgt i32 %13, 0
  ret i1 %14
}