; Function Attrs: null_pointer_is_valid sspstrong uwtable
define internal zeroext i1 @dissect_rtitcp_heur(ptr noundef %0, ptr noundef %1, ptr noundef %2, ptr noundef %3) #0 {
  %5 = tail call i32 @tvb_captured_length(ptr noundef %0)
  %6 = icmp ult i32 %5, 8
  br i1 %6, label %dissect_rtitcp.exit, label %7

7:                                                ; preds = %4
  %8 = tail call i32 @tvb_get_ntohl(ptr noundef %0, i32 noundef 4)
  %.not.i = icmp eq i32 %8, -581640875
  br i1 %.not.i, label %9, label %dissect_rtitcp.exit

9:                                                ; preds = %7
  %10 = getelementptr inbounds nuw i8, ptr %1, i64 8
  %11 = load ptr, ptr %10, align 8
  tail call void @col_clear(ptr noundef %11, i32 noundef 25)
  tail call void @tcp_dissect_pdus(ptr noundef %0, ptr noundef %1, ptr noundef %2, i1 noundef zeroext true, i32 noundef 8, ptr noundef nonnull @get_rtitcp_pdu_len, ptr noundef nonnull @dissect_rtitcp_common, ptr noundef %3)
  %12 = tail call i32 @tvb_captured_length(ptr noundef %0)
  %13 = icmp sgt i32 %12, 0
  br label %dissect_rtitcp.exit

dissect_rtitcp.exit:                              ; preds = %4, %7, %9
  %.0.i = phi i1 [ %13, %9 ], [ false, %4 ], [ false, %7 ]
  ret i1 %.0.i
}